target datalayout = "e-m:e-p270:32:32-p271:32:32-p272:64:64-i64:64-i128:128-f80:128-n8:16:32:64-S128"
target triple = "x86_64-pc-linux-gnu"

%struct.AVFilterLink = type { ptr, ptr, ptr, ptr, i32, i32, i32, i32, %struct.AVRational, i32, i32, i32, %struct.AVChannelLayout, %struct.AVRational, ptr, i32, %struct.AVFilterFormatsConfig, %struct.AVFilterFormatsConfig }
%struct.AVChannelLayout = type { i32, i32, %union.anon.1, ptr }
%union.anon.1 = type { i64 }
%struct.AVRational = type { i32, i32 }
%struct.AVFilterFormatsConfig = type { ptr, ptr, ptr, ptr, ptr }
%struct.AVFilterContext = type { ptr, ptr, ptr, ptr, ptr, i32, ptr, ptr, i32, ptr, ptr, i32, i32, ptr, ptr, ptr, ptr, i32, ptr, i32, i32 }
%struct.ColorizeContext = type { ptr, float, float, float, float, i32, [3 x i32], [4 x i32], [4 x i32], [2 x ptr] }
%struct.AVPixFmtDescriptor = type { ptr, i8, i8, i8, i64, [4 x %struct.AVComponentDescriptor], ptr }
%struct.AVComponentDescriptor = type { i32, i32, i32, i32, i32 }

; Function Attrs: cold nounwind optsize uwtable
define internal i32 @config_input(ptr noundef %0) #2 {
  %2 = alloca ptr, align 8
  %3 = alloca ptr, align 8
  %4 = alloca ptr, align 8
  %5 = alloca ptr, align 8
  %6 = alloca i32, align 4
  store ptr %0, ptr %2, align 8, !tbaa !4
  call void @llvm.lifetime.start.p0(i64 8, ptr %3) #8
  %7 = load ptr, ptr %2, align 8, !tbaa !4
  %8 = getelementptr inbounds nuw %struct.AVFilterLink, ptr %7, i32 0, i32 2
  %9 = load ptr, ptr %8, align 8, !tbaa !11
  store ptr %9, ptr %3, align 8, !tbaa !23
  call void @llvm.lifetime.start.p0(i64 8, ptr %4) #8
  %10 = load ptr, ptr %3, align 8, !tbaa !23
  %11 = getelementptr inbounds nuw %struct.AVFilterContext, ptr %10, i32 0, i32 9
  %12 = load ptr, ptr %11, align 8, !tbaa !24
  store ptr %12, ptr %4, align 8, !tbaa !34
  call void @llvm.lifetime.start.p0(i64 8, ptr %5) #8
  %13 = load ptr, ptr %2, align 8, !tbaa !4
  %14 = getelementptr inbounds nuw %struct.AVFilterLink, ptr %13, i32 0, i32 5
  %15 = load i32, ptr %14, align 4, !tbaa !45
  %16 = call ptr @av_pix_fmt_desc_get(i32 noundef %15)
  store ptr %16, ptr %5, align 8, !tbaa !46
  call void @llvm.lifetime.start.p0(i64 4, ptr %6) #8
  %17 = load ptr, ptr %5, align 8, !tbaa !46
  %18 = getelementptr inbounds nuw %struct.AVPixFmtDescriptor, ptr %17, i32 0, i32 5
  %19 = getelementptr inbounds [4 x %struct.AVComponentDescriptor], ptr %18, i64 0, i64 0
  %20 = getelementptr inbounds nuw %struct.AVComponentDescriptor, ptr %19, i32 0, i32 4
  %21 = load i32, ptr %20, align 8, !tbaa !48
  store i32 %21, ptr %6, align 4, !tbaa !43
  %22 = load ptr, ptr %4, align 8, !tbaa !34
  %23 = getelementptr inbounds nuw %struct.ColorizeContext, ptr %22, i32 0, i32 5
  store i32 %21, ptr %23, align 8, !tbaa !42
  %24 = load ptr, ptr %5, align 8, !tbaa !46
  %25 = getelementptr inbounds nuw %struct.AVPixFmtDescriptor, ptr %24, i32 0, i32 2
  %26 = load i8, ptr %25, align 1, !tbaa !50
  %27 = call i1 @llvm.is.constant.i8(i8 %26)
  br i1 %27, label %39, label %28

28:                                               ; preds = %1
  %29 = load ptr, ptr %2, align 8, !tbaa !4
  %30 = getelementptr inbounds nuw %struct.AVFilterLink, ptr %29, i32 0, i32 6
  %31 = load i32, ptr %30, align 8, !tbaa !53
  %32 = sub nsw i32 0, %31
  %33 = load ptr, ptr %5, align 8, !tbaa !46
  %34 = getelementptr inbounds nuw %struct.AVPixFmtDescriptor, ptr %33, i32 0, i32 2
  %35 = load i8, ptr %34, align 1, !tbaa !50
  %36 = zext i8 %35 to i32
  %37 = ashr i32 %32, %36
  %38 = sub nsw i32 0, %37
  br label %55

39:                                               ; preds = %1
  %40 = load ptr, ptr %2, align 8, !tbaa !4
  %41 = getelementptr inbounds nuw %struct.AVFilterLink, ptr %40, i32 0, i32 6
  %42 = load i32, ptr %41, align 8, !tbaa !53
  %43 = load ptr, ptr %5, align 8, !tbaa !46
  %44 = getelementptr inbounds nuw %struct.AVPixFmtDescriptor, ptr %43, i32 0, i32 2
  %45 = load i8, ptr %44, align 1, !tbaa !50
  %46 = zext i8 %45 to i32
  %47 = shl i32 1, %46
  %48 = add nsw i32 %42, %47
  %49 = sub nsw i32 %48, 1
  %50 = load ptr, ptr %5, align 8, !tbaa !46
  %51 = getelementptr inbounds nuw %struct.AVPixFmtDescriptor, ptr %50, i32 0, i32 2
  %52 = load i8, ptr %51, align 1, !tbaa !50
  %53 = zext i8 %52 to i32
  %54 = ashr i32 %49, %53
  br label %55

55:                                               ; preds = %39, %28
  %56 = phi i32 [ %38, %28 ], [ %54, %39 ]
  %57 = load ptr, ptr %4, align 8, !tbaa !34
  %58 = getelementptr inbounds nuw %struct.ColorizeContext, ptr %57, i32 0, i32 7
  %59 = getelementptr inbounds [4 x i32], ptr %58, i64 0, i64 2
  store i32 %56, ptr %59, align 8, !tbaa !43
  %60 = load ptr, ptr %4, align 8, !tbaa !34
  %61 = getelementptr inbounds nuw %struct.ColorizeContext, ptr %60, i32 0, i32 7
  %62 = getelementptr inbounds [4 x i32], ptr %61, i64 0, i64 1
  store i32 %56, ptr %62, align 4, !tbaa !43
  %63 = load ptr, ptr %2, align 8, !tbaa !4
  %64 = getelementptr inbounds nuw %struct.AVFilterLink, ptr %63, i32 0, i32 6
  %65 = load i32, ptr %64, align 8, !tbaa !53
  %66 = load ptr, ptr %4, align 8, !tbaa !34
  %67 = getelementptr inbounds nuw %struct.ColorizeContext, ptr %66, i32 0, i32 7
  %68 = getelementptr inbounds [4 x i32], ptr %67, i64 0, i64 3
  store i32 %65, ptr %68, align 4, !tbaa !43
  %69 = load ptr, ptr %4, align 8, !tbaa !34
  %70 = getelementptr inbounds nuw %struct.ColorizeContext, ptr %69, i32 0, i32 7
  %71 = getelementptr inbounds [4 x i32], ptr %70, i64 0, i64 0
  store i32 %65, ptr %71, align 8, !tbaa !43
  %72 = load ptr, ptr %5, align 8, !tbaa !46
  %73 = getelementptr inbounds nuw %struct.AVPixFmtDescriptor, ptr %72, i32 0, i32 3
  %74 = load i8, ptr %73, align 2, !tbaa !54
  %75 = call i1 @llvm.is.constant.i8(i8 %74)
  br i1 %75, label %87, label %76

76:                                               ; preds = %55
  %77 = load ptr, ptr %2, align 8, !tbaa !4
  %78 = getelementptr inbounds nuw %struct.AVFilterLink, ptr %77, i32 0, i32 7
  %79 = load i32, ptr %78, align 4, !tbaa !55
  %80 = sub nsw i32 0, %79
  %81 = load ptr, ptr %5, align 8, !tbaa !46
  %82 = getelementptr inbounds nuw %struct.AVPixFmtDescriptor, ptr %81, i32 0, i32 3
  %83 = load i8, ptr %82, align 2, !tbaa !54
  %84 = zext i8 %83 to i32
  %85 = ashr i32 %80, %84
  %86 = sub nsw i32 0, %85
  br label %103

87:                                               ; preds = %55
  %88 = load ptr, ptr %2, align 8, !tbaa !4
  %89 = getelementptr inbounds nuw %struct.AVFilterLink, ptr %88, i32 0, i32 7
  %90 = load i32, ptr %89, align 4, !tbaa !55
  %91 = load ptr, ptr %5, align 8, !tbaa !46
  %92 = getelementptr inbounds nuw %struct.AVPixFmtDescriptor, ptr %91, i32 0, i32 3
  %93 = load i8, ptr %92, align 2, !tbaa !54
  %94 = zext i8 %93 to i32
  %95 = shl i32 1, %94
  %96 = add nsw i32 %90, %95
  %97 = sub nsw i32 %96, 1
  %98 = load ptr, ptr %5, align 8, !tbaa !46
  %99 = getelementptr inbounds nuw %struct.AVPixFmtDescriptor, ptr %98, i32 0, i32 3
  %100 = load i8, ptr %99, align 2, !tbaa !54
  %101 = zext i8 %100 to i32
  %102 = ashr i32 %97, %101
  br label %103

103:                                              ; preds = %87, %76
  %104 = phi i32 [ %86, %76 ], [ %102, %87 ]
  %105 = load ptr, ptr %4, align 8, !tbaa !34
  %106 = getelementptr inbounds nuw %struct.ColorizeContext, ptr %105, i32 0, i32 8
  %107 = getelementptr inbounds [4 x i32], ptr %106, i64 0, i64 2
  store i32 %104, ptr %107, align 8, !tbaa !43
  %108 = load ptr, ptr %4, align 8, !tbaa !34
  %109 = getelementptr inbounds nuw %struct.ColorizeContext, ptr %108, i32 0, i32 8
  %110 = getelementptr inbounds [4 x i32], ptr %109, i64 0, i64 1
  store i32 %104, ptr %110, align 4, !tbaa !43
  %111 = load ptr, ptr %2, align 8, !tbaa !4
  %112 = getelementptr inbounds nuw %struct.AVFilterLink, ptr %111, i32 0, i32 7
  %113 = load i32, ptr %112, align 4, !tbaa !55
  %114 = load ptr, ptr %4, align 8, !tbaa !34
  %115 = getelementptr inbounds nuw %struct.ColorizeContext, ptr %114, i32 0, i32 8
  %116 = getelementptr inbounds [4 x i32], ptr %115, i64 0, i64 3
  store i32 %113, ptr %116, align 4, !tbaa !43
  %117 = load ptr, ptr %4, align 8, !tbaa !34
  %118 = getelementptr inbounds nuw %struct.ColorizeContext, ptr %117, i32 0, i32 8
  %119 = getelementptr inbounds [4 x i32], ptr %118, i64 0, i64 0
  store i32 %113, ptr %119, align 8, !tbaa !43
  %120 = load i32, ptr %6, align 4, !tbaa !43
  %121 = icmp sle i32 %120, 8
  %122 = select i1 %121, ptr @colorizey_slice8, ptr @colorizey_slice16
  %123 = load ptr, ptr %4, align 8, !tbaa !34
  %124 = getelementptr inbounds nuw %struct.ColorizeContext, ptr %123, i32 0, i32 9
  %125 = getelementptr inbounds [2 x ptr], ptr %124, i64 0, i64 0
  store ptr %122, ptr %125, align 8, !tbaa !56
  %126 = load i32, ptr %6, align 4, !tbaa !43
  %127 = icmp sle i32 %126, 8
  %128 = select i1 %127, ptr @colorize_slice8, ptr @colorize_slice16
  %129 = load ptr, ptr %4, align 8, !tbaa !34
  %130 = getelementptr inbounds nuw %struct.ColorizeContext, ptr %129, i32 0, i32 9
  %131 = getelementptr inbounds [2 x ptr], ptr %130, i64 0, i64 1
  store ptr %128, ptr %131, align 8, !tbaa !56
  call void @llvm.lifetime.end.p0(i64 4, ptr %6) #8
  call void @llvm.lifetime.end.p0(i64 8, ptr %5) #8
  call void @llvm.lifetime.end.p0(i64 8, ptr %4) #8
  call void @llvm.lifetime.end.p0(i64 8, ptr %3) #8
  ret i32 0
}