; Function Attrs: cold nounwind optsize uwtable
define internal noundef i32 @config_input(ptr noundef readonly captures(none) %0) #2 {
  %2 = getelementptr inbounds nuw i8, ptr %0, i64 16
  %3 = load ptr, ptr %2, align 8, !tbaa !4
  %4 = getelementptr inbounds nuw i8, ptr %3, i64 72
  %5 = load ptr, ptr %4, align 8, !tbaa !19
  %6 = getelementptr inbounds nuw i8, ptr %0, i64 36
  %7 = load i32, ptr %6, align 4, !tbaa !39
  %8 = tail call ptr @av_pix_fmt_desc_get(i32 noundef %7) #8
  %9 = getelementptr inbounds nuw i8, ptr %8, i64 40
  %10 = load i32, ptr %9, align 8, !tbaa !40
  %11 = getelementptr inbounds nuw i8, ptr %5, i64 24
  store i32 %10, ptr %11, align 8, !tbaa !34
  %12 = getelementptr inbounds nuw i8, ptr %0, i64 40
  %13 = load i32, ptr %12, align 8, !tbaa !42
  %14 = sub nsw i32 0, %13
  %15 = getelementptr inbounds nuw i8, ptr %8, i64 9
  %16 = load i8, ptr %15, align 1, !tbaa !43
  %17 = zext nneg i8 %16 to i32
  %18 = ashr i32 %14, %17
  %19 = sub nsw i32 0, %18
  %20 = getelementptr inbounds nuw i8, ptr %5, i64 40
  %21 = getelementptr inbounds nuw i8, ptr %5, i64 48
  store i32 %19, ptr %21, align 8, !tbaa !35
  %22 = getelementptr inbounds nuw i8, ptr %5, i64 44
  store i32 %19, ptr %22, align 4, !tbaa !35
  %23 = getelementptr inbounds nuw i8, ptr %0, i64 40
  %24 = load i32, ptr %23, align 8, !tbaa !42
  %25 = getelementptr inbounds nuw i8, ptr %5, i64 52
  store i32 %24, ptr %25, align 4, !tbaa !35
  store i32 %24, ptr %20, align 8, !tbaa !35
  %26 = getelementptr inbounds nuw i8, ptr %0, i64 44
  %27 = load i32, ptr %26, align 4, !tbaa !46
  %28 = sub nsw i32 0, %27
  %29 = getelementptr inbounds nuw i8, ptr %8, i64 10
  %30 = load i8, ptr %29, align 2, !tbaa !47
  %31 = zext nneg i8 %30 to i32
  %32 = ashr i32 %28, %31
  %33 = sub nsw i32 0, %32
  %34 = getelementptr inbounds nuw i8, ptr %5, i64 56
  %35 = getelementptr inbounds nuw i8, ptr %5, i64 64
  store i32 %33, ptr %35, align 8, !tbaa !35
  %36 = getelementptr inbounds nuw i8, ptr %5, i64 60
  store i32 %33, ptr %36, align 4, !tbaa !35
  %37 = getelementptr inbounds nuw i8, ptr %0, i64 44
  %38 = load i32, ptr %37, align 4, !tbaa !46
  %39 = getelementptr inbounds nuw i8, ptr %5, i64 68
  store i32 %38, ptr %39, align 4, !tbaa !35
  store i32 %38, ptr %34, align 8, !tbaa !35
  %40 = icmp slt i32 %10, 9
  %41 = select i1 %40, ptr @colorizey_slice8, ptr @colorizey_slice16
  %42 = getelementptr inbounds nuw i8, ptr %5, i64 72
  store ptr %41, ptr %42, align 8, !tbaa !48
  %43 = select i1 %40, ptr @colorize_slice8, ptr @colorize_slice16
  %44 = getelementptr inbounds nuw i8, ptr %5, i64 80
  store ptr %43, ptr %44, align 8, !tbaa !48
  ret i32 0
}